Certificate:
    Data:
        Version: 3 (0x2)
        Serial Number:
            d3:6a:3e:75:a1:83:a6:72
    Signature Algorithm: sha256WithRSAEncryption
        Issuer: C=DE, L=Duelmen, O=Excelfore, OU=xl4bus, CN=CA/emailAddress=pawel@excelfore.com
        Validity
            Not Before: Jan 18 02:14:39 2018 GMT
            Not After : Jan 18 02:14:39 2019 GMT
        Subject: C=DE, O=Excelfore, OU=xl4bus, CN=timeout
        Subject Public Key Info:
            Public Key Algorithm: rsaEncryption
                Public-Key: (2048 bit)
                Modulus:
                    00:aa:79:3a:9f:29:ca:c7:23:89:bb:c1:f5:cf:58:
                    89:5d:a5:29:ac:21:f5:40:c1:a3:84:56:59:d3:4f:
                    2e:f5:4e:14:32:f6:69:fb:94:70:09:a4:9e:de:92:
                    12:7e:26:e9:82:66:1d:a7:31:66:48:85:9f:7c:54:
                    24:5d:de:24:39:7a:fe:8d:25:b6:dd:0f:ae:5c:45:
                    b8:28:41:62:23:71:7a:db:96:29:e9:44:ce:a6:20:
                    41:a1:7f:ff:b5:b0:64:28:91:08:8f:7c:77:f2:93:
                    14:cc:29:36:8f:e5:ba:89:0f:1d:53:2c:31:c6:30:
                    88:69:72:76:d0:5d:8a:86:8a:55:3c:7e:0c:9e:23:
                    4d:03:79:2f:d8:0f:6e:dc:83:6f:d6:e6:ff:1b:86:
                    e7:b7:2b:cf:d1:ae:e8:7b:b4:a5:bd:dd:77:96:c7:
                    34:20:aa:10:6b:41:a0:60:ae:77:62:9f:e1:fe:bc:
                    ea:cc:a0:f2:9e:f8:f3:70:ee:51:50:b6:48:ef:35:
                    76:d2:e2:e7:9f:9f:71:90:24:57:d6:55:b0:d0:26:
                    db:93:b2:33:75:dd:d6:3e:ed:8e:fb:b4:ca:6a:db:
                    00:89:0c:bb:49:19:db:89:02:ee:5d:2f:d5:f3:ab:
                    20:58:1a:ea:04:1e:d3:da:81:4e:bc:2c:c7:c2:d8:
                    fe:b9
                Exponent: 65537 (0x10001)
        X509v3 extensions:
            X509v3 Basic Constraints: 
                CA:FALSE
            Netscape Comment: 
                Excelfore device cert
            X509v3 Subject Key Identifier: 
                13:56:3A:27:5F:52:CA:4E:FA:01:5A:26:44:9B:1B:64:60:C7:60:A3
            X509v3 Authority Key Identifier: 
                keyid:96:E0:CB:39:B8:11:A7:46:23:6F:1B:57:7A:E7:02:D5:E7:99:54:50

            1.3.6.1.4.1.45473.1.6: 
                0.0..
+......!....
    Signature Algorithm: sha256WithRSAEncryption
         b3:20:f1:c3:71:38:09:79:3f:66:02:25:f2:5d:5a:7b:23:e2:
         a0:ea:1d:61:20:d3:f9:d6:aa:fb:fa:ca:43:3a:73:69:90:95:
         e9:0b:1f:a2:86:78:fa:12:03:22:09:1e:56:e9:3d:78:03:be:
         ec:37:7d:5b:ef:8d:9f:4f:b4:a6:8e:5a:dc:90:66:1f:ec:23:
         94:51:96:a3:2a:34:01:6e:4f:87:d1:75:1c:34:bd:f1:fe:08:
         da:b3:2f:57:4c:c0:4c:8d:11:6f:95:90:9d:b7:13:2e:15:30:
         05:72:82:9f:53:c0:d9:41:e8:a8:69:29:b8:17:38:1c:57:df:
         e4:a8:61:c4:55:bb:3f:25:a1:3b:d4:0d:d0:97:0d:b0:7d:8c:
         39:9a:fd:cd:83:08:89:65:83:42:63:50:ba:d1:cf:8f:5d:29:
         e8:87:fa:5b:ef:1e:33:66:63:b7:29:68:b6:22:b6:e3:e5:8c:
         9b:f8:3b:55:f4:f8:99:3b:f1:bb:d6:fe:b4:84:60:52:b6:c0:
         4b:4b:ae:b9:27:b0:10:75:e6:55:07:64:33:38:5c:14:06:a5:
         6d:e9:52:36:6c:61:94:42:e5:37:ff:b5:1a:11:cf:d4:b3:fe:
         fa:55:2f:0f:88:a7:de:82:3d:64:61:81:fa:04:55:3c:37:99:
         b6:f0:bc:a4
-----BEGIN CERTIFICATE-----
MIID0zCCArugAwIBAgIJANNqPnWhg6ZyMA0GCSqGSIb3DQEBCwUAMHUxCzAJBgNV
BAYTAkRFMRAwDgYDVQQHDAdEdWVsbWVuMRIwEAYDVQQKDAlFeGNlbGZvcmUxDzAN
BgNVBAsMBnhsNGJ1czELMAkGA1UEAwwCQ0ExIjAgBgkqhkiG9w0BCQEWE3Bhd2Vs
QGV4Y2VsZm9yZS5jb20wHhcNMTgwMTE4MDIxNDM5WhcNMTkwMTE4MDIxNDM5WjBE
MQswCQYDVQQGEwJERTESMBAGA1UECgwJRXhjZWxmb3JlMQ8wDQYDVQQLDAZ4bDRi
dXMxEDAOBgNVBAMMB3RpbWVvdXQwggEiMA0GCSqGSIb3DQEBAQUAA4IBDwAwggEK
AoIBAQCqeTqfKcrHI4m7wfXPWIldpSmsIfVAwaOEVlnTTy71ThQy9mn7lHAJpJ7e
khJ+JumCZh2nMWZIhZ98VCRd3iQ5ev6NJbbdD65cRbgoQWIjcXrblinpRM6mIEGh
f/+1sGQokQiPfHfykxTMKTaP5bqJDx1TLDHGMIhpcnbQXYqGilU8fgyeI00DeS/Y
D27cg2/W5v8bhue3K8/Rruh7tKW93XeWxzQgqhBrQaBgrndin+H+vOrMoPKe+PNw
7lFQtkjvNXbS4uefn3GQJFfWVbDQJtuTsjN13dY+7Y77tMpq2wCJDLtJGduJAu5d
L9XzqyBYGuoEHtPagU68LMfC2P65AgMBAAGjgZYwgZMwCQYDVR0TBAIwADAkBglg
hkgBhvhCAQ0EFxYVRXhjZWxmb3JlIGRldmljZSBjZXJ0MB0GA1UdDgQWBBQTVjon
X1LKTvoBWiZEmxtkYMdgozAfBgNVHSMEGDAWgBSW4Ms5uBGnRiNvG1d65wLV55lU
UDAgBgorBgEEAYLjIQEGBBIwEDAOBgorBgEEAYLjIQIEBQAwDQYJKoZIhvcNAQEL
BQADggEBALMg8cNxOAl5P2YCJfJdWnsj4qDqHWEg0/nWqvv6ykM6c2mQlekLH6KG
ePoSAyIJHlbpPXgDvuw3fVvvjZ9PtKaOWtyQZh/sI5RRlqMqNAFuT4fRdRw0vfH+
CNqzL1dMwEyNEW+VkJ23Ey4VMAVygp9TwNlB6KhpKbgXOBxX3+SoYcRVuz8loTvU
DdCXDbB9jDma/c2DCIllg0JjULrRz49dKeiH+lvvHjNmY7cpaLYituPljJv4O1X0
+Jk78bvW/rSEYFK2wEtLrrknsBB15lUHZDM4XBQGpW3pUjZsYZRC5Tf/tRoRz9Sz
/vpVLw+Ip96CPWRhgfoEVTw3mbbwvKQ=
-----END CERTIFICATE-----
